target datalayout = "e-m:e-p270:32:32-p271:32:32-p272:64:64-i64:64-i128:128-f80:128-n8:16:32:64-S128"
target triple = "x86_64-pc-linux-gnu"

%struct.strbuf = type { i64, i64, ptr }

@sane_ctype = external constant [256 x i8], align 16

; Function Attrs: nounwind uwtable
define dso_local void @strbuf_ltrim(ptr noundef %0) #0 {
  %2 = alloca ptr, align 8
  %3 = alloca ptr, align 8
  store ptr %0, ptr %2, align 8, !tbaa !18
  call void @llvm.lifetime.start.p0(i64 8, ptr %3) #11
  %4 = load ptr, ptr %2, align 8, !tbaa !18
  %5 = getelementptr inbounds nuw %struct.strbuf, ptr %4, i32 0, i32 2
  %6 = load ptr, ptr %5, align 8, !tbaa !23
  store ptr %6, ptr %3, align 8, !tbaa !4
  br label %7

7:                                                ; preds = %23, %1
  %8 = load ptr, ptr %2, align 8, !tbaa !18
  %9 = getelementptr inbounds nuw %struct.strbuf, ptr %8, i32 0, i32 1
  %10 = load i64, ptr %9, align 8, !tbaa !22
  %11 = icmp ugt i64 %10, 0
  br i1 %11, label %12, label %21

12:                                               ; preds = %7
  %13 = load ptr, ptr %3, align 8, !tbaa !4
  %14 = load i8, ptr %13, align 1, !tbaa !9
  %15 = zext i8 %14 to i64
  %16 = getelementptr inbounds nuw [256 x i8], ptr @sane_ctype, i64 0, i64 %15
  %17 = load i8, ptr %16, align 1, !tbaa !9
  %18 = zext i8 %17 to i32
  %19 = and i32 %18, 1
  %20 = icmp ne i32 %19, 0
  br label %21

21:                                               ; preds = %12, %7
  %22 = phi i1 [ false, %7 ], [ %20, %12 ]
  br i1 %22, label %23, label %30

23:                                               ; preds = %21
  %24 = load ptr, ptr %3, align 8, !tbaa !4
  %25 = getelementptr inbounds nuw i8, ptr %24, i32 1
  store ptr %25, ptr %3, align 8, !tbaa !4
  %26 = load ptr, ptr %2, align 8, !tbaa !18
  %27 = getelementptr inbounds nuw %struct.strbuf, ptr %26, i32 0, i32 1
  %28 = load i64, ptr %27, align 8, !tbaa !22
  %29 = add i64 %28, -1
  store i64 %29, ptr %27, align 8, !tbaa !22
  br label %7, !llvm.loop !28

30:                                               ; preds = %21
  %31 = load ptr, ptr %2, align 8, !tbaa !18
  %32 = getelementptr inbounds nuw %struct.strbuf, ptr %31, i32 0, i32 2
  %33 = load ptr, ptr %32, align 8, !tbaa !23
  %34 = load ptr, ptr %3, align 8, !tbaa !4
  %35 = load ptr, ptr %2, align 8, !tbaa !18
  %36 = getelementptr inbounds nuw %struct.strbuf, ptr %35, i32 0, i32 1
  %37 = load i64, ptr %36, align 8, !tbaa !22
  call void @llvm.memmove.p0.p0.i64(ptr align 1 %33, ptr align 1 %34, i64 %37, i1 false)
  %38 = load ptr, ptr %2, align 8, !tbaa !18
  %39 = getelementptr inbounds nuw %struct.strbuf, ptr %38, i32 0, i32 2
  %40 = load ptr, ptr %39, align 8, !tbaa !23
  %41 = load ptr, ptr %2, align 8, !tbaa !18
  %42 = getelementptr inbounds nuw %struct.strbuf, ptr %41, i32 0, i32 1
  %43 = load i64, ptr %42, align 8, !tbaa !22
  %44 = getelementptr inbounds nuw i8, ptr %40, i64 %43
  store i8 0, ptr %44, align 1, !tbaa !9
  call void @llvm.lifetime.end.p0(i64 8, ptr %3) #11
  ret void
}