; Function Attrs: nofree norecurse nosync nounwind memory(readwrite, inaccessiblemem: none) uwtable
define dso_local void @strbuf_ltrim(ptr noundef captures(none) %0) local_unnamed_addr #9 {
  %2 = getelementptr inbounds nuw i8, ptr %0, i64 16
  %3 = load ptr, ptr %2, align 8, !tbaa !12
  %4 = getelementptr inbounds nuw i8, ptr %0, i64 8
  %.promoted = load i64, ptr %4, align 8, !tbaa !16
  %.not13 = icmp eq i64 %.promoted, 0
  br i1 %.not13, label %.critedge, label %.lr.ph.preheader

.lr.ph.preheader:                                 ; preds = %1
  %scevgep = getelementptr i8, ptr %3, i64 %.promoted
  br label %.lr.ph

.lr.ph:                                           ; preds = %.lr.ph.preheader, %11
  %.014 = phi ptr [ %12, %11 ], [ %3, %.lr.ph.preheader ]
  %5 = phi i64 [ %13, %11 ], [ %.promoted, %.lr.ph.preheader ]
  %6 = load i8, ptr %.014, align 1, !tbaa !4
  %7 = zext i8 %6 to i64
  %8 = getelementptr inbounds nuw [256 x i8], ptr @sane_ctype, i64 0, i64 %7
  %9 = load i8, ptr %8, align 1, !tbaa !4
  %10 = and i8 %9, 1
  %.not11 = icmp eq i8 %10, 0
  br i1 %.not11, label %.critedge, label %11

11:                                               ; preds = %.lr.ph
  %12 = getelementptr inbounds nuw i8, ptr %.014, i64 1
  %13 = add i64 %5, -1
  store i64 %13, ptr %4, align 8, !tbaa !16
  %.not = icmp eq i64 %13, 0
  br i1 %.not, label %.critedge, label %.lr.ph, !llvm.loop !19

.critedge:                                        ; preds = %.lr.ph, %11, %1
  %.0.lcssa = phi ptr [ %3, %1 ], [ %scevgep, %11 ], [ %.014, %.lr.ph ]
  %.lcssa = phi i64 [ 0, %1 ], [ 0, %11 ], [ %5, %.lr.ph ]
  tail call void @llvm.memmove.p0.p0.i64(ptr align 1 %3, ptr align 1 %.0.lcssa, i64 %.lcssa, i1 false)
  %14 = load ptr, ptr %2, align 8, !tbaa !12
  %15 = load i64, ptr %4, align 8, !tbaa !16
  %16 = getelementptr inbounds nuw i8, ptr %14, i64 %15
  store i8 0, ptr %16, align 1, !tbaa !4
  ret void
}